; Function Attrs: mustprogress uwtable
define hidden noundef float @_ZN11mpf_manager8to_floatERK3mpf(ptr noundef nonnull align 8 dereferenceable(840) %this, ptr noundef nonnull align 8 dereferenceable(32) %x) local_unnamed_addr #5 align 2 {
entry:
  %m_mpz_manager = getelementptr inbounds i8, ptr %this, i64 728
  %0 = load ptr, ptr %m_mpz_manager, align 8
  %significand = getelementptr inbounds i8, ptr %x, i64 8
  %call = tail call noundef i64 @_ZNK11mpz_managerILb0EE10get_uint64ERK3mpz(ptr noundef nonnull align 8 dereferenceable(600) %0, ptr noundef nonnull align 8 dereferenceable(16) %significand)
  %bf.load = load i32, ptr %x, align 8
  %exponent.i.i = getelementptr inbounds i8, ptr %x, i64 24
  %1 = load i64, ptr %exponent.i.i, align 8
  %bf.clear.i = and i32 %bf.load, 32767
  %2 = load ptr, ptr %m_mpz_manager, align 8
  %m_powers2.i.i = getelementptr inbounds i8, ptr %this, i64 736
  %sub.i.i = add nsw i32 %bf.clear.i, -1
  %call.i.i = tail call noundef nonnull align 8 dereferenceable(16) ptr @_ZN11mpf_manager7powers2clEjb(ptr noundef nonnull align 8 dereferenceable(104) %m_powers2.i.i, i32 noundef %sub.i.i, i1 noundef zeroext false)
  %call2.i.i = tail call noundef i64 @_ZNK11mpz_managerILb0EE9get_int64ERK3mpz(ptr noundef nonnull align 8 dereferenceable(600) %2, ptr noundef nonnull align 8 dereferenceable(16) %call.i.i)
  %cmp.i = icmp eq i64 %1, %call2.i.i
  br i1 %cmp.i, label %if.end9, label %if.else

if.else:                                          ; preds = %entry
  %3 = load i64, ptr %exponent.i.i, align 8
  %bf.load.i9 = load i32, ptr %x, align 8
  %bf.clear.i10 = and i32 %bf.load.i9, 32767
  %4 = load ptr, ptr %m_mpz_manager, align 8
  %sub.i.i13 = add nsw i32 %bf.clear.i10, -1
  %call.i.i14 = tail call noundef nonnull align 8 dereferenceable(16) ptr @_ZN11mpf_manager7powers22m1Ejb(ptr noundef nonnull align 8 dereferenceable(104) %m_powers2.i.i, i32 noundef %sub.i.i13, i1 noundef zeroext true)
  %call2.i.i15 = tail call noundef i64 @_ZNK11mpz_managerILb0EE9get_int64ERK3mpz(ptr noundef nonnull align 8 dereferenceable(600) %4, ptr noundef nonnull align 8 dereferenceable(16) %call.i.i14)
  %cmp.i16 = icmp eq i64 %3, %call2.i.i15
  br i1 %cmp.i16, label %if.end9, label %if.else5

if.else5:                                         ; preds = %if.else
  %5 = load i64, ptr %exponent.i.i, align 8
  %conv8 = trunc i64 %5 to i32
  %6 = shl i32 %conv8, 23
  %7 = add i32 %6, 1065353216
  br label %if.end9

if.end9:                                          ; preds = %if.else, %entry, %if.else5
  %exp.0 = phi i32 [ %7, %if.else5 ], [ 2139095040, %entry ], [ 0, %if.else ]
  %conv = trunc i64 %call to i32
  %bf.lshr = lshr i32 %bf.load, 15
  %bf.clear = and i32 %bf.lshr, 65535
  %sub = sub nsw i32 24, %bf.clear
  %shl = shl i32 %conv, %sub
  %or = or i32 %exp.0, %shl
  %bf.load11 = load i32, ptr %x, align 8
  %8 = and i32 %bf.load11, -2147483648
  %spec.select = or i32 %or, %8
  %9 = bitcast i32 %spec.select to float
  ret float %9
}